target datalayout = "e-m:e-p270:32:32-p271:32:32-p272:64:64-i64:64-i128:128-f80:128-n8:16:32:64-S128"
target triple = "x86_64-pc-linux-gnu"

%class.QString = type { %struct.QArrayDataPointer.0 }
%struct.QArrayDataPointer.0 = type { ptr, ptr, i64 }
%struct.QMetaObject = type { %"struct.QMetaObject::Data" }
%"struct.QMetaObject::Data" = type { %"struct.QMetaObject::SuperData", ptr, ptr, ptr, ptr, ptr, ptr }
%"struct.QMetaObject::SuperData" = type { ptr }

@.str = private unnamed_addr constant [8 x i8] c"Default\00", align 1
@.str.1 = private unnamed_addr constant [5 x i8] c"Left\00", align 1
@.str.2 = private unnamed_addr constant [7 x i8] c"Center\00", align 1
@.str.3 = private unnamed_addr constant [6 x i8] c"Right\00", align 1
@.str.4 = private unnamed_addr constant [8 x i8] c"Unknown\00", align 1
@_ZN19QStyledItemDelegate16staticMetaObjectE = external global %struct.QMetaObject, align 8

; Function Attrs: mustprogress uwtable
define linkonce_odr void @_ZN19QStyledItemDelegate2trEPKcS1_i(ptr dead_on_unwind noalias writable sret(%class.QString) align 8 %0, ptr noundef %1, ptr noundef %2, i32 noundef %3) #3 comdat align 2 {
  %5 = alloca ptr, align 8
  %6 = alloca ptr, align 8
  %7 = alloca ptr, align 8
  %8 = alloca i32, align 4
  store ptr %0, ptr %5, align 8
  store ptr %1, ptr %6, align 8
  store ptr %2, ptr %7, align 8
  store i32 %3, ptr %8, align 4
  %9 = load ptr, ptr %6, align 8
  %10 = load ptr, ptr %7, align 8
  %11 = load i32, ptr %8, align 4
  call void @_ZNK11QMetaObject2trEPKcS1_i(ptr dead_on_unwind writable sret(%class.QString) align 8 %0, ptr noundef nonnull align 8 dereferenceable(56) @_ZN19QStyledItemDelegate16staticMetaObjectE, ptr noundef %9, ptr noundef %10, i32 noundef %11)
  ret void
}

; Function Attrs: mustprogress uwtable
define void @_ZN18ColumnTypeDelegate9alignDescEc(ptr dead_on_unwind noalias writable sret(%class.QString) align 8 %0, i8 noundef signext %1) #3 align 2 {
  %3 = alloca ptr, align 8
  %4 = alloca i8, align 1
  store ptr %0, ptr %3, align 8
  store i8 %1, ptr %4, align 1
  %5 = load i8, ptr %4, align 1
  %6 = sext i8 %5 to i32
  switch i32 %6, label %11 [
    i32 0, label %7
    i32 76, label %8
    i32 67, label %9
    i32 82, label %10
  ]

7:                                                ; preds = %2
  call void @_ZN19QStyledItemDelegate2trEPKcS1_i(ptr dead_on_unwind writable sret(%class.QString) align 8 %0, ptr noundef @.str, ptr noundef null, i32 noundef -1)
  br label %12

8:                                                ; preds = %2
  call void @_ZN19QStyledItemDelegate2trEPKcS1_i(ptr dead_on_unwind writable sret(%class.QString) align 8 %0, ptr noundef @.str.1, ptr noundef null, i32 noundef -1)
  br label %12

9:                                                ; preds = %2
  call void @_ZN19QStyledItemDelegate2trEPKcS1_i(ptr dead_on_unwind writable sret(%class.QString) align 8 %0, ptr noundef @.str.2, ptr noundef null, i32 noundef -1)
  br label %12

10:                                               ; preds = %2
  call void @_ZN19QStyledItemDelegate2trEPKcS1_i(ptr dead_on_unwind writable sret(%class.QString) align 8 %0, ptr noundef @.str.3, ptr noundef null, i32 noundef -1)
  br label %12

11:                                               ; preds = %2
  call void @_ZN19QStyledItemDelegate2trEPKcS1_i(ptr dead_on_unwind writable sret(%class.QString) align 8 %0, ptr noundef @.str.4, ptr noundef null, i32 noundef -1)
  br label %12

12:                                               ; preds = %11, %10, %9, %8, %7
  ret void
}