; Function Attrs: mustprogress uwtable
define void @_ZN18ColumnTypeDelegate9alignDescEc(ptr dead_on_unwind noalias writable sret(%class.QString) align 8 %0, i8 noundef signext %1) local_unnamed_addr #2 align 2 {
  switch i8 %1, label %6 [
    i8 0, label %7
    i8 76, label %3
    i8 67, label %4
    i8 82, label %5
  ]

3:                                                ; preds = %2
  br label %7

4:                                                ; preds = %2
  br label %7

5:                                                ; preds = %2
  br label %7

6:                                                ; preds = %2
  br label %7

7:                                                ; preds = %2, %6, %5, %4, %3
  %.str.4.sink = phi ptr [ @.str.4, %6 ], [ @.str.3, %5 ], [ @.str.2, %4 ], [ @.str.1, %3 ], [ @.str, %2 ]
  tail call void @_ZNK11QMetaObject2trEPKcS1_i(ptr dead_on_unwind writable sret(%class.QString) align 8 %0, ptr noundef nonnull align 8 dereferenceable(56) @_ZN19QStyledItemDelegate16staticMetaObjectE, ptr noundef nonnull %.str.4.sink, ptr noundef null, i32 noundef -1)
  ret void
}